- Make sure your PEM file starts with a dash -

Certificate:
    Data:
        Version: 3 (0x2)
        Serial Number:
            6e:73:28:55:df:13:b5:61:f5:4f:4f:5d:00:d9:0a:d8:b5:3a:21:4b
        Signature Algorithm: ecdsa-with-SHA256
        Issuer: C = IE, L = Dublin, O = Cesanta, CN = Test Root
        Validity
            Not Before: May  9 21:51:49 2020 GMT
            Not After : May  9 21:51:49 2030 GMT
        Subject: CN = server
        Subject Public Key Info:
            Public Key Algorithm: id-ecPublicKey
                Public-Key: (256 bit)
                pub:
                    04:92:e0:46:9c:89:c3:37:a9:74:eb:35:55:43:55:
                    5c:ac:eb:c7:e4:50:ee:f4:c0:ba:17:02:5c:d9:ed:
                    b4:d4:ff:21:12:9a:b4:43:f4:89:4b:69:e4:6d:2b:
                    96:1f:fc:01:4d:30:5a:79:73:76:ba:19:41:cc:c5:
                    16:2b:bf:74:28
                ASN1 OID: prime256v1
                NIST CURVE: P-256
        X509v3 extensions:
            X509v3 Basic Constraints: 
                CA:FALSE
            X509v3 Key Usage: 
                Digital Signature, Key Encipherment, Key Agreement
            X509v3 Extended Key Usage: 
                TLS Web Server Authentication
    Signature Algorithm: ecdsa-with-SHA256
         30:46:02:21:00:fa:3a:c7:1e:cb:8c:27:59:41:8d:77:dd:7b:
         cb:8c:08:15:16:b9:6e:70:e6:47:38:d1:55:42:e0:d7:66:c8:
         f0:02:21:00:cc:70:4d:96:28:00:d3:c7:39:53:74:b2:49:87:
         27:92:1b:ab:1a:0e:74:06:59:42:23:47:98:43:d8:20:a7:fa
-----BEGIN CERTIFICATE-----
MIIBhzCCASygAwIBAgIUbnMoVd8TtWH1T09dANkK2LU6IUswCgYIKoZIzj0EAwIw
RDELMAkGA1UEBhMCSUUxDzANBgNVBAcMBkR1YmxpbjEQMA4GA1UECgwHQ2VzYW50
YTESMBAGA1UEAwwJVGVzdCBSb290MB4XDTIwMDUwOTIxNTE0OVoXDTMwMDUwOTIx
NTE0OVowETEPMA0GA1UEAwwGc2VydmVyMFkwEwYHKoZIzj0CAQYIKoZIzj0DAQcD
QgAEkuBGnInDN6l06zVVQ1VcrOvH5FDu9MC6FwJc2e201P8hEpq0Q/SJS2nkbSuW
H/wBTTBaeXN2uhlBzMUWK790KKMvMC0wCQYDVR0TBAIwADALBgNVHQ8EBAMCA6gw
EwYDVR0lBAwwCgYIKwYBBQUHAwEwCgYIKoZIzj0EAwIDSQAwRgIhAPo6xx7LjCdZ
QY133XvLjAgVFrlucOZHONFVQuDXZsjwAiEAzHBNligA08c5U3SySYcnkhurGg50
BllCI0eYQ9ggp/o=
-----END CERTIFICATE-----
-----BEGIN PRIVATE KEY-----
MIGHAgEAMBMGByqGSM49AgEGCCqGSM49AwEHBG0wawIBAQQglNni0t9Dg9icgG8w
kbfxWSS+TuNgbtNybIQXcm3NHpmhRANCAASS4EacicM3qXTrNVVDVVys68fkUO70
wLoXAlzZ7bTU/yESmrRD9IlLaeRtK5Yf/AFNMFp5c3a6GUHMxRYrv3Qo
-----END PRIVATE KEY-----
