Certificate:
    Data:
        Version: 3 (0x2)
        Serial Number: 17173783314715673685 (0xee5588ef23288455)
    Signature Algorithm: sha256WithRSAEncryption
        Issuer: CN=test.cesanta.com, O=Cesanta, OU=testing
        Validity
            Not Before: Nov 13 13:09:40 2016 GMT
            Not After : Nov 11 13:09:40 2026 GMT
        Subject: CN=test.cesanta.com, O=Cesanta, OU=testing
        Subject Public Key Info:
            Public Key Algorithm: rsaEncryption
                Public-Key: (2048 bit)
                Modulus:
                    00:af:f1:f4:61:ef:ad:ab:b9:7b:6f:49:14:39:25:
                    6a:34:b8:dc:e8:d5:c1:71:75:a9:da:fc:16:1c:eb:
                    d2:a0:78:b3:b8:92:67:3e:28:b1:37:e2:fc:c5:20:
                    f8:10:44:48:53:bf:00:fb:90:2b:b3:d8:32:60:f8:
                    63:5b:b5:1a:d0:fe:11:4f:e5:df:16:71:f4:54:97:
                    bb:f7:25:6f:a4:41:64:0e:be:bc:b1:57:57:22:d7:
                    2d:85:fc:88:2f:8e:a8:a4:3c:c5:4d:f2:39:44:3e:
                    1d:e8:6e:5e:28:da:19:b3:82:22:fe:b1:d0:e2:ce:
                    87:e5:04:26:27:3b:04:7c:26:f3:ae:a0:22:d3:c2:
                    50:cd:31:a0:e2:02:8a:b2:57:cf:69:36:8d:36:82:
                    df:77:e8:71:04:2b:51:6e:ac:88:bc:5e:ef:f8:e6:
                    e1:40:60:66:ce:31:a9:bf:4a:f2:f9:a7:f6:c3:40:
                    de:a6:79:60:e6:bc:f8:30:68:61:08:a9:ff:52:b7:
                    8f:16:7e:2f:f2:42:99:ab:a9:ff:2e:30:0a:ca:ff:
                    ce:65:c5:79:ed:36:00:92:ee:db:64:35:4c:2b:d9:
                    36:15:ef:d7:fa:e6:b0:e4:30:aa:c7:dc:b3:37:51:
                    07:4f:6c:c0:23:96:40:d7:e6:76:a7:f0:f3:95:71:
                    45:53
                Exponent: 65537 (0x10001)
        X509v3 extensions:
            X509v3 Basic Constraints: 
                CA:TRUE
            X509v3 Key Usage: 
                Digital Signature, Key Encipherment, Key Agreement, Certificate Sign, CRL Sign
    Signature Algorithm: sha256WithRSAEncryption
         58:86:a3:68:2a:5a:4e:7a:5a:ab:c8:45:cf:67:70:48:8e:c7:
         09:33:88:9a:4c:41:e0:44:a6:e0:fa:a0:ce:13:e2:eb:2f:10:
         e3:f9:42:6d:96:cc:8a:ac:d4:e1:31:80:7d:59:f4:50:21:f3:
         d3:d5:fa:2f:e7:76:e6:61:eb:60:3f:ac:f3:4a:bd:94:68:fa:
         b9:d6:f2:fa:e0:5a:80:15:54:ee:46:20:1a:65:50:91:90:0b:
         d2:07:64:fd:e3:9c:38:bc:32:85:71:9e:11:fd:7d:a5:9b:99:
         c9:e0:a0:ec:70:08:72:84:13:6e:2e:c5:3c:fa:52:be:df:26:
         09:4d:45:ca:96:87:c4:7f:77:04:27:86:e5:09:9d:1a:4a:e1:
         f1:ab:b6:61:8c:3a:8a:1a:b7:0a:0e:60:5d:3d:01:d1:53:04:
         57:43:e2:44:ea:73:26:de:c1:f3:ff:74:e5:0e:6a:cc:26:9f:
         c6:41:0e:69:9e:d4:c1:3b:47:c4:c0:da:3f:c0:67:76:cf:9b:
         bc:3e:e1:b2:a5:a4:a0:44:fd:11:5b:2c:e9:18:a9:5f:63:ab:
         8a:9e:6f:0d:ff:e2:d1:49:09:b7:31:f5:21:04:2b:25:b0:19:
         7f:a7:76:ae:97:be:e8:52:0a:8e:6f:3d:44:5b:1e:2a:65:9c:
         fb:35:aa:08
-----BEGIN CERTIFICATE-----
MIIDHjCCAgagAwIBAgIJAO5ViO8jKIRVMA0GCSqGSIb3DQEBCwUAMD8xGTAXBgNV
BAMMEHRlc3QuY2VzYW50YS5jb20xEDAOBgNVBAoMB0Nlc2FudGExEDAOBgNVBAsM
B3Rlc3RpbmcwHhcNMTYxMTEzMTMwOTQwWhcNMjYxMTExMTMwOTQwWjA/MRkwFwYD
VQQDDBB0ZXN0LmNlc2FudGEuY29tMRAwDgYDVQQKDAdDZXNhbnRhMRAwDgYDVQQL
DAd0ZXN0aW5nMIIBIjANBgkqhkiG9w0BAQEFAAOCAQ8AMIIBCgKCAQEAr/H0Ye+t
q7l7b0kUOSVqNLjc6NXBcXWp2vwWHOvSoHizuJJnPiixN+L8xSD4EERIU78A+5Ar
s9gyYPhjW7Ua0P4RT+XfFnH0VJe79yVvpEFkDr68sVdXItcthfyIL46opDzFTfI5
RD4d6G5eKNoZs4Ii/rHQ4s6H5QQmJzsEfCbzrqAi08JQzTGg4gKKslfPaTaNNoLf
d+hxBCtRbqyIvF7v+ObhQGBmzjGpv0ry+af2w0Depnlg5rz4MGhhCKn/UrePFn4v
8kKZq6n/LjAKyv/OZcV57TYAku7bZDVMK9k2Fe/X+uaw5DCqx9yzN1EHT2zAI5ZA
1+Z2p/DzlXFFUwIDAQABox0wGzAMBgNVHRMEBTADAQH/MAsGA1UdDwQEAwIBrjAN
BgkqhkiG9w0BAQsFAAOCAQEAWIajaCpaTnpaq8hFz2dwSI7HCTOImkxB4ESm4Pqg
zhPi6y8Q4/lCbZbMiqzU4TGAfVn0UCHz09X6L+d25mHrYD+s80q9lGj6udby+uBa
gBVU7kYgGmVQkZAL0gdk/eOcOLwyhXGeEf19pZuZyeCg7HAIcoQTbi7FPPpSvt8m
CU1FypaHxH93BCeG5QmdGkrh8au2YYw6ihq3Cg5gXT0B0VMEV0PiROpzJt7B8/90
5Q5qzCafxkEOaZ7UwTtHxMDaP8Bnds+bvD7hsqWkoET9EVss6RipX2Orip5vDf/i
0UkJtzH1IQQrJbAZf6d2rpe+6FIKjm89RFseKmWc+zWqCA==
-----END CERTIFICATE-----
