Certificate:
    Data:
        Version: 3 (0x2)
        Serial Number: 1 (0x1)
    Signature Algorithm: sha256WithRSAEncryption
        Issuer: CN=localhost, O=Cesanta, OU=Testing
        Validity
            Not Before: Aug 22 12:34:04 2016 GMT
            Not After : Aug 22 12:34:04 2026 GMT
        Subject: CN=localhost, O=Cesanta, OU=Testing
        Subject Public Key Info:
            Public Key Algorithm: rsaEncryption
                Public-Key: (2048 bit)
                Modulus:
                    00:cc:19:f4:cb:58:cc:5d:8c:53:58:2a:43:99:7e:
                    0e:22:cc:52:0b:b0:e4:8b:4f:77:3f:51:0e:98:b7:
                    01:27:98:a2:8d:10:d3:c5:7b:38:7c:b3:03:e5:a3:
                    99:28:96:91:14:b3:d2:83:c9:53:93:8a:76:e3:8b:
                    9d:98:f0:cd:e0:45:e7:f7:0d:22:b7:a5:c2:1a:57:
                    bd:28:54:75:6c:cc:16:28:39:8c:cc:ab:1a:b6:84:
                    a4:93:5a:14:ff:ce:a6:45:e8:2c:99:ec:32:b0:6c:
                    80:13:90:31:08:30:7a:fc:16:47:73:7b:9b:84:47:
                    89:ff:a5:ea:d7:94:ce:cd:f5:fe:fe:d3:26:b6:c3:
                    e8:39:23:0e:1c:47:4f:04:e8:cf:68:9c:7e:53:a1:
                    20:72:51:3f:86:17:5d:95:c6:66:80:03:62:ed:ad:
                    65:65:ed:57:84:15:e3:79:d2:e7:18:85:50:c2:64:
                    c6:03:cc:ab:73:71:6b:fd:2f:dc:3d:b3:25:d9:ec:
                    b9:52:f3:45:c5:b3:d0:1c:9e:21:8d:e9:f6:a0:4d:
                    06:55:66:73:70:b1:91:33:ff:5c:95:4f:ab:88:b8:
                    f7:ce:96:c9:1c:97:79:55:15:3a:f0:e7:9c:83:6b:
                    3c:c5:d1:a7:1c:cc:90:03:25:db:96:1d:55:55:5b:
                    48:3d
                Exponent: 65537 (0x10001)
        X509v3 extensions:
            X509v3 Key Usage: 
                Key Encipherment, Key Agreement
            X509v3 Subject Alternative Name: 
                IP Address:127.0.0.1
    Signature Algorithm: sha256WithRSAEncryption
         17:13:f8:8a:b5:ff:5a:73:de:5c:e7:a4:8c:b0:df:75:13:82:
         92:69:61:17:c5:d5:83:35:cc:5b:8f:8f:97:e0:ee:1f:6e:1a:
         96:59:a2:66:7b:50:c1:23:f0:72:89:c9:8f:b7:ab:34:62:fb:
         5e:c2:8a:00:d6:29:99:f3:91:0f:18:e3:64:da:c2:f9:de:5a:
         a0:08:a9:81:df:6c:05:61:5d:0c:84:0a:4c:f5:f7:0b:e0:81:
         56:7b:46:a1:b5:d6:9b:72:70:83:75:74:06:97:6c:ce:77:a6:
         96:98:f3:d4:99:41:53:74:be:65:3a:16:5f:bf:0e:10:0c:2b:
         88:a8:b2:f0:15:5a:84:05:23:bf:c9:0a:c3:56:1c:5a:1f:8d:
         4b:bc:14:67:05:6d:0e:2b:51:82:03:8c:18:41:93:5e:84:5f:
         2c:05:11:c2:5c:0a:c3:3f:9d:b1:6e:3a:f2:d9:05:54:97:fc:
         cf:cd:55:14:19:42:f7:29:67:5d:8e:ac:c2:7a:ff:b7:08:3b:
         eb:68:39:37:d3:2b:e5:b8:08:05:88:e7:b6:30:94:7e:0a:87:
         46:0c:90:d2:40:18:0c:41:5d:f2:85:a7:f4:be:2a:d4:c5:c5:
         93:a8:89:c7:0e:87:8b:1c:04:e0:ae:ab:25:70:f2:c9:28:a9:
         59:f6:32:78
-----BEGIN CERTIFICATE-----
MIIDCzCCAfOgAwIBAgIBATANBgkqhkiG9w0BAQsFADA4MRIwEAYDVQQDDAlsb2Nh
bGhvc3QxEDAOBgNVBAoMB0Nlc2FudGExEDAOBgNVBAsMB1Rlc3RpbmcwHhcNMTYw
ODIyMTIzNDA0WhcNMjYwODIyMTIzNDA0WjA4MRIwEAYDVQQDDAlsb2NhbGhvc3Qx
EDAOBgNVBAoMB0Nlc2FudGExEDAOBgNVBAsMB1Rlc3RpbmcwggEiMA0GCSqGSIb3
DQEBAQUAA4IBDwAwggEKAoIBAQDMGfTLWMxdjFNYKkOZfg4izFILsOSLT3c/UQ6Y
twEnmKKNENPFezh8swPlo5kolpEUs9KDyVOTinbji52Y8M3gRef3DSK3pcIaV70o
VHVszBYoOYzMqxq2hKSTWhT/zqZF6CyZ7DKwbIATkDEIMHr8Fkdze5uER4n/perX
lM7N9f7+0ya2w+g5Iw4cR08E6M9onH5ToSByUT+GF12VxmaAA2LtrWVl7VeEFeN5
0ucYhVDCZMYDzKtzcWv9L9w9syXZ7LlS80XFs9AcniGN6fagTQZVZnNwsZEz/1yV
T6uIuPfOlskcl3lVFTrw55yDazzF0acczJADJduWHVVVW0g9AgMBAAGjIDAeMAsG
A1UdDwQEAwIDKDAPBgNVHREECDAGhwR/AAABMA0GCSqGSIb3DQEBCwUAA4IBAQAX
E/iKtf9ac95c56SMsN91E4KSaWEXxdWDNcxbj4+X4O4fbhqWWaJme1DBI/ByicmP
t6s0YvtewooA1imZ85EPGONk2sL53lqgCKmB32wFYV0MhApM9fcL4IFWe0ahtdab
cnCDdXQGl2zOd6aWmPPUmUFTdL5lOhZfvw4QDCuIqLLwFVqEBSO/yQrDVhxaH41L
vBRnBW0OK1GCA4wYQZNehF8sBRHCXArDP52xbjry2QVUl/zPzVUUGUL3KWddjqzC
ev+3CDvraDk30yvluAgFiOe2MJR+CodGDJDSQBgMQV3yhaf0virUxcWTqInHDoeL
HATgrqslcPLJKKlZ9jJ4
-----END CERTIFICATE-----
