Certificate:
    Data:
        Version: 3 (0x2)
        Serial Number: 4 (0x4)
    Signature Algorithm: sha256WithRSAEncryption
        Issuer: CN=test.cesanta.com, O=Cesanta, OU=testing
        Validity
            Not Before: Nov 13 13:18:01 2016 GMT
            Not After : Aug 13 13:18:01 2026 GMT
        Subject: CN=localhost
        Subject Public Key Info:
            Public Key Algorithm: rsaEncryption
                Public-Key: (2048 bit)
                Modulus:
                    00:ae:8f:02:5b:55:f4:c5:a1:a6:1a:40:da:33:12:
                    9b:5d:60:39:2f:0f:ac:78:0e:b5:b6:2a:06:ad:22:
                    10:ce:ea:8b:61:e2:68:16:7c:15:80:5d:23:07:93:
                    d3:8f:ed:c4:88:63:01:70:0f:e6:87:bd:d5:02:d8:
                    53:16:62:41:c6:3f:9a:80:8a:7b:fd:cb:d4:06:98:
                    1f:2c:29:66:49:82:f6:7d:98:ba:16:87:73:f9:ff:
                    66:72:bc:b7:5d:1c:3b:3b:ab:e5:6a:6b:56:7d:35:
                    fc:4c:09:8c:49:1e:8f:5d:50:47:2e:08:ec:e6:90:
                    ce:14:59:ab:34:0b:0c:e6:c2:d8:53:5f:f5:30:5b:
                    c4:d9:9f:48:9d:32:39:1b:8d:fb:20:4d:56:72:14:
                    52:6e:96:1d:1d:c8:42:df:d5:f3:a4:31:a8:22:76:
                    41:d5:ad:ce:85:c1:e6:fb:15:2d:2e:93:09:d0:6d:
                    28:13:95:45:13:29:d9:ad:e6:68:10:86:38:27:1b:
                    29:43:b2:cf:b1:ac:bd:7f:1d:d3:96:4d:3d:80:43:
                    10:81:50:9e:08:d8:90:c1:4c:59:76:d2:da:bb:6c:
                    7a:d4:b3:5c:75:90:8a:37:b1:5b:14:b2:6c:ce:fd:
                    54:da:e8:2e:10:bb:13:9a:2e:c4:ea:91:eb:4f:38:
                    a8:b1
                Exponent: 65537 (0x10001)
        X509v3 extensions:
            X509v3 Basic Constraints: 
                CA:FALSE
            X509v3 Key Usage: 
                Digital Signature, Key Encipherment, Key Agreement
            X509v3 Extended Key Usage: 
                TLS Web Server Authentication
            X509v3 Subject Alternative Name: 
                IP Address:127.0.0.1
    Signature Algorithm: sha256WithRSAEncryption
         54:c3:48:5b:4d:c4:fa:72:bc:ce:0c:ee:10:01:75:3b:cf:85:
         f1:9f:42:e4:c5:b5:c4:b2:84:e1:1b:54:02:56:03:1c:e0:18:
         69:c7:c8:32:cf:90:8b:c8:76:33:02:22:4e:04:51:1e:57:45:
         c4:aa:81:93:34:c3:05:7a:54:77:43:94:e0:f7:2d:53:60:ed:
         ea:c3:00:16:c5:ee:bf:6e:b5:73:a6:db:3a:36:21:b5:b8:43:
         01:9c:11:60:a0:dd:71:dc:8f:71:e0:da:4e:c5:4e:4c:53:57:
         65:23:1b:ca:b3:91:d0:0a:83:49:f0:3d:12:a8:e5:fd:05:5f:
         e9:66:ac:04:82:20:9b:b9:60:d6:40:09:71:90:5a:67:88:ba:
         27:96:45:48:e6:14:ee:c9:b0:92:06:c6:bd:14:42:3d:33:a2:
         49:9f:d2:d9:9a:51:fd:d0:56:07:79:2e:2d:e8:ff:1e:38:90:
         9e:7a:41:cb:d2:35:06:e0:86:9e:0c:c3:f5:da:1f:12:77:4c:
         b1:20:a9:a6:67:e4:3f:a7:f0:ff:06:4b:87:7f:92:1d:bf:78:
         60:c8:b9:19:e2:63:73:9e:32:b8:f7:01:da:60:cf:81:80:1a:
         0b:dd:97:a0:80:9d:ac:5a:35:25:a2:4a:db:1e:cc:12:04:b2:
         db:50:92:05
-----BEGIN CERTIFICATE-----
MIIDDjCCAfagAwIBAgIBBDANBgkqhkiG9w0BAQsFADA/MRkwFwYDVQQDDBB0ZXN0
LmNlc2FudGEuY29tMRAwDgYDVQQKDAdDZXNhbnRhMRAwDgYDVQQLDAd0ZXN0aW5n
MB4XDTE2MTExMzEzMTgwMVoXDTI2MDgxMzEzMTgwMVowFDESMBAGA1UEAwwJbG9j
YWxob3N0MIIBIjANBgkqhkiG9w0BAQEFAAOCAQ8AMIIBCgKCAQEAro8CW1X0xaGm
GkDaMxKbXWA5Lw+seA61tioGrSIQzuqLYeJoFnwVgF0jB5PTj+3EiGMBcA/mh73V
AthTFmJBxj+agIp7/cvUBpgfLClmSYL2fZi6Fodz+f9mcry3XRw7O6vlamtWfTX8
TAmMSR6PXVBHLgjs5pDOFFmrNAsM5sLYU1/1MFvE2Z9InTI5G437IE1WchRSbpYd
HchC39XzpDGoInZB1a3OhcHm+xUtLpMJ0G0oE5VFEynZreZoEIY4JxspQ7LPsay9
fx3Tlk09gEMQgVCeCNiQwUxZdtLau2x61LNcdZCKN7FbFLJszv1U2uguELsTmi7E
6pHrTziosQIDAQABo0AwPjAJBgNVHRMEAjAAMAsGA1UdDwQEAwIDqDATBgNVHSUE
DDAKBggrBgEFBQcDATAPBgNVHREECDAGhwR/AAABMA0GCSqGSIb3DQEBCwUAA4IB
AQBUw0hbTcT6crzODO4QAXU7z4Xxn0LkxbXEsoThG1QCVgMc4Bhpx8gyz5CLyHYz
AiJOBFEeV0XEqoGTNMMFelR3Q5Tg9y1TYO3qwwAWxe6/brVzpts6NiG1uEMBnBFg
oN1x3I9x4NpOxU5MU1dlIxvKs5HQCoNJ8D0SqOX9BV/pZqwEgiCbuWDWQAlxkFpn
iLonlkVI5hTuybCSBsa9FEI9M6JJn9LZmlH90FYHeS4t6P8eOJCeekHL0jUG4Iae
DMP12h8Sd0yxIKmmZ+Q/p/D/BkuHf5Idv3hgyLkZ4mNznjK49wHaYM+BgBoL3Zeg
gJ2sWjUlokrbHswSBLLbUJIF
-----END CERTIFICATE-----
